target datalayout = "e-m:e-p270:32:32-p271:32:32-p272:64:64-i64:64-i128:128-f80:128-n8:16:32:64-S128"
target triple = "x86_64-pc-linux-gnu"

%struct._object = type { %union.anon, ptr }
%union.anon = type { i64 }
%struct.anon = type { i32, i32 }
%struct.PyMethodDef = type { ptr, ptr, i32, ptr }

@getpath_warn_method = internal global { ptr, ptr, i32, [4 x i8], ptr } { ptr @.str.58, ptr @getpath_warn, i32 1, [4 x i8] zeroinitializer, ptr null }, align 8
@getpath_nowarn_method = internal global { ptr, ptr, i32, [4 x i8], ptr } { ptr @.str.58, ptr @getpath_nowarn, i32 1, [4 x i8] zeroinitializer, ptr null }, align 8

; Function Attrs: alwaysinline nounwind uwtable
define internal i32 @_Py_IsImmortal(ptr noundef %0) #5 {
  %2 = alloca ptr, align 8
  store ptr %0, ptr %2, align 8, !tbaa !16
  %3 = load ptr, ptr %2, align 8, !tbaa !16
  %4 = getelementptr inbounds nuw %struct._object, ptr %3, i32 0, i32 0
  %5 = getelementptr inbounds nuw %struct.anon, ptr %4, i32 0, i32 0
  %6 = load i32, ptr %5, align 8, !tbaa !26
  %7 = icmp slt i32 %6, 0
  %8 = zext i1 %7 to i32
  ret i32 %8
}

; Function Attrs: alwaysinline nounwind uwtable
define internal void @Py_DECREF(ptr noundef %0) #5 {
  %2 = alloca ptr, align 8
  store ptr %0, ptr %2, align 8, !tbaa !16
  %3 = load ptr, ptr %2, align 8, !tbaa !16
  %4 = call i32 @_Py_IsImmortal(ptr noundef %3)
  %5 = icmp ne i32 %4, 0
  br i1 %5, label %6, label %7

6:                                                ; preds = %1
  br label %16

7:                                                ; preds = %1
  %8 = load ptr, ptr %2, align 8, !tbaa !16
  %9 = getelementptr inbounds nuw %struct._object, ptr %8, i32 0, i32 0
  %10 = getelementptr inbounds nuw %struct.anon, ptr %9, i32 0, i32 0
  %11 = load i32, ptr %10, align 8, !tbaa !26
  %12 = add i32 %11, -1
  store i32 %12, ptr %10, align 8, !tbaa !26
  %13 = icmp eq i32 %12, 0
  br i1 %13, label %14, label %16

14:                                               ; preds = %7
  %15 = load ptr, ptr %2, align 8, !tbaa !16
  call void @_Py_Dealloc(ptr noundef %15)
  br label %16

16:                                               ; preds = %6, %14, %7
  ret void
}

; Function Attrs: nounwind uwtable
define internal i32 @funcs_to_dict(ptr noundef %0, i32 noundef %1) #0 {
  %3 = alloca i32, align 4
  %4 = alloca ptr, align 8
  %5 = alloca i32, align 4
  %6 = alloca ptr, align 8
  %7 = alloca i32, align 4
  %8 = alloca ptr, align 8
  %9 = alloca ptr, align 8
  %10 = alloca ptr, align 8
  store ptr %0, ptr %4, align 8, !tbaa !16
  store i32 %1, ptr %5, align 4, !tbaa !9
  call void @llvm.lifetime.start.p0(i64 8, ptr %6) #10
  store ptr @getpath_methods, ptr %6, align 8, !tbaa !31
  br label %11

11:                                               ; preds = %38, %2
  %12 = load ptr, ptr %6, align 8, !tbaa !31
  %13 = getelementptr inbounds nuw %struct.PyMethodDef, ptr %12, i32 0, i32 0
  %14 = load ptr, ptr %13, align 8, !tbaa !33
  %15 = icmp ne ptr %14, null
  br i1 %15, label %17, label %16

16:                                               ; preds = %11
  store i32 2, ptr %7, align 4
  br label %41

17:                                               ; preds = %11
  call void @llvm.lifetime.start.p0(i64 8, ptr %8) #10
  %18 = load ptr, ptr %6, align 8, !tbaa !31
  %19 = call ptr @PyCMethod_New(ptr noundef %18, ptr noundef null, ptr noundef null, ptr noundef null)
  store ptr %19, ptr %8, align 8, !tbaa !16
  %20 = load ptr, ptr %8, align 8, !tbaa !16
  %21 = icmp ne ptr %20, null
  br i1 %21, label %23, label %22

22:                                               ; preds = %17
  store i32 0, ptr %3, align 4
  store i32 1, ptr %7, align 4
  br label %35

23:                                               ; preds = %17
  %24 = load ptr, ptr %4, align 8, !tbaa !16
  %25 = load ptr, ptr %6, align 8, !tbaa !31
  %26 = getelementptr inbounds nuw %struct.PyMethodDef, ptr %25, i32 0, i32 0
  %27 = load ptr, ptr %26, align 8, !tbaa !33
  %28 = load ptr, ptr %8, align 8, !tbaa !16
  %29 = call i32 @PyDict_SetItemString(ptr noundef %24, ptr noundef %27, ptr noundef %28)
  %30 = icmp slt i32 %29, 0
  br i1 %30, label %31, label %33

31:                                               ; preds = %23
  %32 = load ptr, ptr %8, align 8, !tbaa !16
  call void @Py_DECREF(ptr noundef %32)
  store i32 0, ptr %3, align 4
  store i32 1, ptr %7, align 4
  br label %35

33:                                               ; preds = %23
  %34 = load ptr, ptr %8, align 8, !tbaa !16
  call void @Py_DECREF(ptr noundef %34)
  store i32 0, ptr %7, align 4
  br label %35

35:                                               ; preds = %33, %31, %22
  call void @llvm.lifetime.end.p0(i64 8, ptr %8) #10
  %36 = load i32, ptr %7, align 4
  switch i32 %36, label %41 [
    i32 0, label %37
  ]

37:                                               ; preds = %35
  br label %38

38:                                               ; preds = %37
  %39 = load ptr, ptr %6, align 8, !tbaa !31
  %40 = getelementptr %struct.PyMethodDef, ptr %39, i32 1
  store ptr %40, ptr %6, align 8, !tbaa !31
  br label %11, !llvm.loop !35

41:                                               ; preds = %35, %16
  call void @llvm.lifetime.end.p0(i64 8, ptr %6) #10
  %42 = load i32, ptr %7, align 4
  switch i32 %42, label %67 [
    i32 2, label %43
    i32 1, label %65
  ]

43:                                               ; preds = %41
  call void @llvm.lifetime.start.p0(i64 8, ptr %9) #10
  %44 = load i32, ptr %5, align 4, !tbaa !9
  %45 = icmp ne i32 %44, 0
  %46 = select i1 %45, ptr @getpath_warn_method, ptr @getpath_nowarn_method
  store ptr %46, ptr %9, align 8, !tbaa !31
  call void @llvm.lifetime.start.p0(i64 8, ptr %10) #10
  %47 = load ptr, ptr %9, align 8, !tbaa !31
  %48 = call ptr @PyCMethod_New(ptr noundef %47, ptr noundef null, ptr noundef null, ptr noundef null)
  store ptr %48, ptr %10, align 8, !tbaa !16
  %49 = load ptr, ptr %10, align 8, !tbaa !16
  %50 = icmp ne ptr %49, null
  br i1 %50, label %52, label %51

51:                                               ; preds = %43
  store i32 0, ptr %3, align 4
  store i32 1, ptr %7, align 4
  br label %64

52:                                               ; preds = %43
  %53 = load ptr, ptr %4, align 8, !tbaa !16
  %54 = load ptr, ptr %9, align 8, !tbaa !31
  %55 = getelementptr inbounds nuw %struct.PyMethodDef, ptr %54, i32 0, i32 0
  %56 = load ptr, ptr %55, align 8, !tbaa !33
  %57 = load ptr, ptr %10, align 8, !tbaa !16
  %58 = call i32 @PyDict_SetItemString(ptr noundef %53, ptr noundef %56, ptr noundef %57)
  %59 = icmp slt i32 %58, 0
  br i1 %59, label %60, label %62

60:                                               ; preds = %52
  %61 = load ptr, ptr %10, align 8, !tbaa !16
  call void @Py_DECREF(ptr noundef %61)
  store i32 0, ptr %3, align 4
  store i32 1, ptr %7, align 4
  br label %64

62:                                               ; preds = %52
  %63 = load ptr, ptr %10, align 8, !tbaa !16
  call void @Py_DECREF(ptr noundef %63)
  store i32 1, ptr %3, align 4
  store i32 1, ptr %7, align 4
  br label %64

64:                                               ; preds = %62, %60, %51
  call void @llvm.lifetime.end.p0(i64 8, ptr %10) #10
  call void @llvm.lifetime.end.p0(i64 8, ptr %9) #10
  br label %65

65:                                               ; preds = %64, %41
  %66 = load i32, ptr %3, align 4
  ret i32 %66

67:                                               ; preds = %41
  unreachable
}