; Function Attrs: nounwind uwtable
define internal fastcc range(i32 0, 2) i32 @funcs_to_dict(ptr noundef nonnull %0, i32 noundef %1) unnamed_addr #0 {
  %3 = load ptr, ptr @getpath_methods, align 16, !tbaa !27
  %.not34 = icmp eq ptr %3, null
  br i1 %.not34, label %._crit_edge, label %.lr.ph

4:                                                ; preds = %Py_DECREF.exit29
  %5 = getelementptr i8, ptr %.01935, i64 32
  %6 = load ptr, ptr %5, align 8, !tbaa !27
  %.not = icmp eq ptr %6, null
  br i1 %.not, label %._crit_edge, label %.lr.ph, !llvm.loop !29

.lr.ph:                                           ; preds = %2, %4
  %.01935 = phi ptr [ %5, %4 ], [ @getpath_methods, %2 ]
  %7 = tail call ptr @PyCMethod_New(ptr noundef nonnull %.01935, ptr noundef null, ptr noundef null, ptr noundef null) #13
  %.not24 = icmp eq ptr %7, null
  br i1 %.not24, label %.critedge.thread, label %8

8:                                                ; preds = %.lr.ph
  %9 = load ptr, ptr %.01935, align 8, !tbaa !27
  %10 = tail call i32 @PyDict_SetItemString(ptr noundef nonnull %0, ptr noundef %9, ptr noundef nonnull %7) #13
  %11 = icmp sgt i32 %10, -1
  %12 = load i32, ptr %7, align 8, !tbaa !16
  %.not.i28 = icmp sgt i32 %12, -1
  br i1 %.not.i28, label %13, label %Py_DECREF.exit29

13:                                               ; preds = %8
  %14 = add nsw i32 %12, -1
  store i32 %14, ptr %7, align 8, !tbaa !16
  %15 = icmp eq i32 %14, 0
  br i1 %15, label %16, label %Py_DECREF.exit29

16:                                               ; preds = %13
  tail call void @_Py_Dealloc(ptr noundef nonnull %7) #13
  br label %Py_DECREF.exit29

Py_DECREF.exit29:                                 ; preds = %8, %13, %16
  br i1 %11, label %4, label %.critedge.thread

._crit_edge:                                      ; preds = %4, %2
  %.not25 = icmp eq i32 %1, 0
  %17 = select i1 %.not25, ptr @getpath_nowarn_method, ptr @getpath_warn_method
  %18 = tail call ptr @PyCMethod_New(ptr noundef nonnull %17, ptr noundef null, ptr noundef null, ptr noundef null) #13
  %.not26 = icmp eq ptr %18, null
  br i1 %.not26, label %.critedge.thread, label %19

19:                                               ; preds = %._crit_edge
  %20 = load ptr, ptr %17, align 8, !tbaa !27
  %21 = tail call i32 @PyDict_SetItemString(ptr noundef nonnull %0, ptr noundef %20, ptr noundef nonnull %18) #13
  %22 = icmp sgt i32 %21, -1
  %23 = load i32, ptr %18, align 8, !tbaa !16
  %.not.i = icmp sgt i32 %23, -1
  br i1 %.not.i, label %24, label %Py_DECREF.exit

24:                                               ; preds = %19
  %25 = add nsw i32 %23, -1
  store i32 %25, ptr %18, align 8, !tbaa !16
  %26 = icmp eq i32 %25, 0
  br i1 %26, label %27, label %Py_DECREF.exit

27:                                               ; preds = %24
  tail call void @_Py_Dealloc(ptr noundef nonnull %18) #13
  br label %Py_DECREF.exit

Py_DECREF.exit:                                   ; preds = %19, %24, %27
  %.27 = zext i1 %22 to i32
  br label %.critedge.thread

.critedge.thread:                                 ; preds = %.lr.ph, %Py_DECREF.exit29, %._crit_edge, %Py_DECREF.exit
  %.3 = phi i32 [ 0, %._crit_edge ], [ %.27, %Py_DECREF.exit ], [ 0, %Py_DECREF.exit29 ], [ 0, %.lr.ph ]
  ret i32 %.3
}